; ModuleID = '17/1438.c'
source_filename = "17/1438.c"
target datalayout = "e-m:e-p270:32:32-p271:32:32-p272:64:64-i64:64-f80:128-n8:16:32:64-S128"
target triple = "x86_64-pc-linux-gnu"

@num = common dso_local global i32 0, align 4
@.str = private unnamed_addr constant [3 x i8] c"%c\00", align 1
@.str.1 = private unnamed_addr constant [2 x i8] c"\0A\00", align 1

; Function Attrs: noinline nounwind uwtable
define dso_local signext i8 @right(i8 signext %0) #0 {
  %2 = alloca i8, align 1
  %3 = alloca i8, align 1
  store i8 %0, i8* %2, align 1
  %4 = load i8, i8* %2, align 1
  %5 = sext i8 %4 to i32
  %6 = icmp ne i32 %5, 40
  br i1 %6, label %7, label %12

7:                                                ; preds = %1
  %8 = load i8, i8* %2, align 1
  %9 = sext i8 %8 to i32
  %10 = icmp ne i32 %9, 41
  br i1 %10, label %11, label %12

11:                                               ; preds = %7
  store i8 32, i8* %3, align 1
  br label %29

12:                                               ; preds = %7, %1
  %13 = load i8, i8* %2, align 1
  %14 = sext i8 %13 to i32
  %15 = icmp eq i32 %14, 41
  br i1 %15, label %16, label %24

16:                                               ; preds = %12
  %17 = load i32, i32* @num, align 4
  %18 = icmp eq i32 %17, 0
  br i1 %18, label %19, label %20

19:                                               ; preds = %16
  store i8 63, i8* %3, align 1
  br label %23

20:                                               ; preds = %16
  %21 = load i32, i32* @num, align 4
  %22 = add nsw i32 %21, -1
  store i32 %22, i32* @num, align 4
  store i8 32, i8* %3, align 1
  br label %23

23:                                               ; preds = %20, %19
  br label %28

24:                                               ; preds = %12
  %25 = load i32, i32* @num, align 4
  %26 = add nsw i32 %25, 1
  store i32 %26, i32* @num, align 4
  %27 = load i8, i8* %2, align 1
  store i8 %27, i8* %3, align 1
  br label %28

28:                                               ; preds = %24, %23
  br label %29

29:                                               ; preds = %28, %11
  %30 = load i8, i8* %3, align 1
  ret i8 %30
}

; Function Attrs: noinline nounwind uwtable
define dso_local signext i8 @left(i8 signext %0, i8 signext %1) #0 {
  %3 = alloca i8, align 1
  %4 = alloca i8, align 1
  %5 = alloca i8, align 1
  store i8 %0, i8* %3, align 1
  store i8 %1, i8* %4, align 1
  %6 = load i8, i8* %4, align 1
  %7 = sext i8 %6 to i32
  %8 = icmp eq i32 %7, 32
  br i1 %8, label %13, label %9

9:                                                ; preds = %2
  %10 = load i8, i8* %4, align 1
  %11 = sext i8 %10 to i32
  %12 = icmp eq i32 %11, 63
  br i1 %12, label %13, label %22

13:                                               ; preds = %9, %2
  %14 = load i8, i8* %4, align 1
  store i8 %14, i8* %5, align 1
  %15 = load i8, i8* %3, align 1
  %16 = sext i8 %15 to i32
  %17 = icmp eq i32 %16, 41
  br i1 %17, label %18, label %21

18:                                               ; preds = %13
  %19 = load i32, i32* @num, align 4
  %20 = add nsw i32 %19, 1
  store i32 %20, i32* @num, align 4
  br label %21

21:                                               ; preds = %18, %13
  br label %30

22:                                               ; preds = %9
  %23 = load i32, i32* @num, align 4
  %24 = icmp eq i32 %23, 0
  br i1 %24, label %25, label %26

25:                                               ; preds = %22
  store i8 36, i8* %5, align 1
  br label %29

26:                                               ; preds = %22
  %27 = load i32, i32* @num, align 4
  %28 = add nsw i32 %27, -1
  store i32 %28, i32* @num, align 4
  store i8 32, i8* %5, align 1
  br label %29

29:                                               ; preds = %26, %25
  br label %30

30:                                               ; preds = %29, %21
  %31 = load i8, i8* %5, align 1
  ret i8 %31
}

; Function Attrs: noinline nounwind uwtable
define dso_local i32 @main() #0 {
  %1 = alloca i32, align 4
  %2 = alloca i32, align 4
  %3 = alloca [101 x i8], align 16
  %4 = alloca [101 x i8], align 16
  store i32 0, i32* %1, align 4
  br label %5

5:                                                ; preds = %71, %0
  %6 = getelementptr inbounds [101 x i8], [101 x i8]* %3, i64 0, i64 0
  %7 = call i32 (i8*, ...) bitcast (i32 (...)* @gets to i32 (i8*, ...)*)(i8* %6)
  %8 = icmp ne i32 %7, 0
  br i1 %8, label %9, label %73

9:                                                ; preds = %5
  store i32 0, i32* @num, align 4
  store i32 0, i32* %2, align 4
  br label %10

10:                                               ; preds = %25, %9
  %11 = load i32, i32* %2, align 4
  %12 = sext i32 %11 to i64
  %13 = getelementptr inbounds [101 x i8], [101 x i8]* %3, i64 0, i64 0
  %14 = call i64 @strlen(i8* %13) #3
  %15 = icmp ult i64 %12, %14
  br i1 %15, label %16, label %28

16:                                               ; preds = %10
  %17 = load i32, i32* %2, align 4
  %18 = sext i32 %17 to i64
  %19 = getelementptr inbounds [101 x i8], [101 x i8]* %3, i64 0, i64 %18
  %20 = load i8, i8* %19, align 1
  %21 = call signext i8 @right(i8 signext %20)
  %22 = load i32, i32* %2, align 4
  %23 = sext i32 %22 to i64
  %24 = getelementptr inbounds [101 x i8], [101 x i8]* %4, i64 0, i64 %23
  store i8 %21, i8* %24, align 1
  br label %25

25:                                               ; preds = %16
  %26 = load i32, i32* %2, align 4
  %27 = add nsw i32 %26, 1
  store i32 %27, i32* %2, align 4
  br label %10

28:                                               ; preds = %10
  store i32 0, i32* @num, align 4
  %29 = getelementptr inbounds [101 x i8], [101 x i8]* %3, i64 0, i64 0
  %30 = call i64 @strlen(i8* %29) #3
  %31 = sub i64 %30, 1
  %32 = trunc i64 %31 to i32
  store i32 %32, i32* %2, align 4
  br label %33

33:                                               ; preds = %49, %28
  %34 = load i32, i32* %2, align 4
  %35 = icmp sge i32 %34, 0
  br i1 %35, label %36, label %52

36:                                               ; preds = %33
  %37 = load i32, i32* %2, align 4
  %38 = sext i32 %37 to i64
  %39 = getelementptr inbounds [101 x i8], [101 x i8]* %3, i64 0, i64 %38
  %40 = load i8, i8* %39, align 1
  %41 = load i32, i32* %2, align 4
  %42 = sext i32 %41 to i64
  %43 = getelementptr inbounds [101 x i8], [101 x i8]* %4, i64 0, i64 %42
  %44 = load i8, i8* %43, align 1
  %45 = call signext i8 @left(i8 signext %40, i8 signext %44)
  %46 = load i32, i32* %2, align 4
  %47 = sext i32 %46 to i64
  %48 = getelementptr inbounds [101 x i8], [101 x i8]* %4, i64 0, i64 %47
  store i8 %45, i8* %48, align 1
  br label %49

49:                                               ; preds = %36
  %50 = load i32, i32* %2, align 4
  %51 = add nsw i32 %50, -1
  store i32 %51, i32* %2, align 4
  br label %33

52:                                               ; preds = %33
  %53 = getelementptr inbounds [101 x i8], [101 x i8]* %3, i64 0, i64 0
  %54 = call i32 @puts(i8* %53)
  store i32 0, i32* %2, align 4
  br label %55

55:                                               ; preds = %68, %52
  %56 = load i32, i32* %2, align 4
  %57 = sext i32 %56 to i64
  %58 = getelementptr inbounds [101 x i8], [101 x i8]* %3, i64 0, i64 0
  %59 = call i64 @strlen(i8* %58) #3
  %60 = icmp ult i64 %57, %59
  br i1 %60, label %61, label %71

61:                                               ; preds = %55
  %62 = load i32, i32* %2, align 4
  %63 = sext i32 %62 to i64
  %64 = getelementptr inbounds [101 x i8], [101 x i8]* %4, i64 0, i64 %63
  %65 = load i8, i8* %64, align 1
  %66 = sext i8 %65 to i32
  %67 = call i32 (i8*, ...) @printf(i8* getelementptr inbounds ([3 x i8], [3 x i8]* @.str, i64 0, i64 0), i32 %66)
  br label %68

68:                                               ; preds = %61
  %69 = load i32, i32* %2, align 4
  %70 = add nsw i32 %69, 1
  store i32 %70, i32* %2, align 4
  br label %55

71:                                               ; preds = %55
  %72 = call i32 (i8*, ...) @printf(i8* getelementptr inbounds ([2 x i8], [2 x i8]* @.str.1, i64 0, i64 0))
  br label %5

73:                                               ; preds = %5
  ret i32 0
}

declare dso_local i32 @gets(...) #1

; Function Attrs: nounwind readonly
declare dso_local i64 @strlen(i8*) #2

declare dso_local i32 @puts(i8*) #1

declare dso_local i32 @printf(i8*, ...) #1


!llvm.module.flags = !{!0}
!llvm.ident = !{!1}

!0 = !{i32 1, !"wchar_size", i32 4}
!1 = !{!"clang version 10.0.0-4ubuntu1 "}
